; Function Attrs: mustprogress uwtable
define dso_local void @_ZN7testing8UnitTest21set_current_test_infoEPNS_8TestInfoE(ptr noundef nonnull align 8 dereferenceable(72) %0, ptr noundef %1) local_unnamed_addr #3 align 2 personality ptr @__gxx_personality_v0 {
  %3 = getelementptr inbounds nuw i8, ptr %0, i64 8
  tail call void @_ZN7testing8internal9MutexBase4LockEv(ptr noundef nonnull align 8 dereferenceable(56) %3)
  %4 = getelementptr inbounds nuw i8, ptr %0, i64 64
  %5 = load ptr, ptr %4, align 8, !tbaa !57
  %6 = getelementptr inbounds nuw i8, ptr %5, i64 480
  store ptr %1, ptr %6, align 8, !tbaa !62
  invoke void @_ZN7testing8internal9MutexBase6UnlockEv(ptr noundef nonnull align 8 dereferenceable(56) %3)
          to label %_ZN7testing8internal14GTestMutexLockD2Ev.exit unwind label %7

7:                                                ; preds = %2
  %8 = landingpad { ptr, i32 }
          catch ptr null
  %9 = extractvalue { ptr, i32 } %8, 0
  tail call void @__clang_call_terminate(ptr %9) #63
  unreachable

_ZN7testing8internal14GTestMutexLockD2Ev.exit:    ; preds = %2
  ret void
}